target datalayout = "e-m:e-p270:32:32-p271:32:32-p272:64:64-i64:64-i128:128-f80:128-n8:16:32:64-S128"
target triple = "x86_64-unknown-linux-gnu"

%class.aiVector3t = type { float, float, float }

; Function Attrs: mustprogress nounwind uwtable
define linkonce_odr hidden noundef float @_ZmlIfET_RK10aiVector3tIS0_ES4_(ptr noundef nonnull align 4 dereferenceable(12) %v1, ptr noundef nonnull align 4 dereferenceable(12) %v2) #0 comdat {
entry:
  %v1.addr = alloca ptr, align 8
  %v2.addr = alloca ptr, align 8
  store ptr %v1, ptr %v1.addr, align 8
  store ptr %v2, ptr %v2.addr, align 8
  %0 = load ptr, ptr %v1.addr, align 8
  %x = getelementptr inbounds %class.aiVector3t, ptr %0, i32 0, i32 0
  %1 = load float, ptr %x, align 4
  %2 = load ptr, ptr %v2.addr, align 8
  %x1 = getelementptr inbounds %class.aiVector3t, ptr %2, i32 0, i32 0
  %3 = load float, ptr %x1, align 4
  %4 = load ptr, ptr %v1.addr, align 8
  %y = getelementptr inbounds %class.aiVector3t, ptr %4, i32 0, i32 1
  %5 = load float, ptr %y, align 4
  %6 = load ptr, ptr %v2.addr, align 8
  %y2 = getelementptr inbounds %class.aiVector3t, ptr %6, i32 0, i32 1
  %7 = load float, ptr %y2, align 4
  %mul3 = fmul float %5, %7
  %8 = call float @llvm.fmuladd.f32(float %1, float %3, float %mul3)
  %9 = load ptr, ptr %v1.addr, align 8
  %z = getelementptr inbounds %class.aiVector3t, ptr %9, i32 0, i32 2
  %10 = load float, ptr %z, align 4
  %11 = load ptr, ptr %v2.addr, align 8
  %z4 = getelementptr inbounds %class.aiVector3t, ptr %11, i32 0, i32 2
  %12 = load float, ptr %z4, align 4
  %13 = call float @llvm.fmuladd.f32(float %10, float %12, float %8)
  ret float %13
}

; Function Attrs: mustprogress uwtable
define float @aiVector3DotProduct(ptr noundef %a, ptr noundef %b) #5 {
entry:
  %a.addr = alloca ptr, align 8
  %b.addr = alloca ptr, align 8
  store ptr %a, ptr %a.addr, align 8
  store ptr %b, ptr %b.addr, align 8
  %0 = load ptr, ptr %a.addr, align 8
  %1 = load ptr, ptr %b.addr, align 8
  %call = call noundef float @_ZmlIfET_RK10aiVector3tIS0_ES4_(ptr noundef nonnull align 4 dereferenceable(12) %0, ptr noundef nonnull align 4 dereferenceable(12) %1)
  ret float %call
}