; Function Attrs: mustprogress nofree norecurse nosync nounwind willreturn memory(argmem: read) uwtable
define noundef float @aiVector3DotProduct(ptr nocapture noundef readonly %a, ptr nocapture noundef readonly %b) local_unnamed_addr #15 {
entry:
  %0 = load float, ptr %a, align 4
  %1 = load float, ptr %b, align 4
  %y.i = getelementptr inbounds i8, ptr %a, i64 4
  %2 = load float, ptr %y.i, align 4
  %y2.i = getelementptr inbounds i8, ptr %b, i64 4
  %3 = load float, ptr %y2.i, align 4
  %mul3.i = fmul float %2, %3
  %4 = tail call float @llvm.fmuladd.f32(float %0, float %1, float %mul3.i)
  %z.i = getelementptr inbounds i8, ptr %a, i64 8
  %5 = load float, ptr %z.i, align 4
  %z4.i = getelementptr inbounds i8, ptr %b, i64 8
  %6 = load float, ptr %z4.i, align 4
  %7 = tail call noundef float @llvm.fmuladd.f32(float %5, float %6, float %4)
  ret float %7
}